; Function Attrs: mustprogress nofree norecurse nosync nounwind willreturn memory(argmem: readwrite) uwtable
define dso_local void @_ZN3net19SourceAddressTokens12InternalSwapEPS0_(ptr noundef nonnull align 8 dereferenceable(56) %this, ptr noundef %other) local_unnamed_addr #11 align 2 personality ptr @__gxx_personality_v0 {
entry:
  %cmp9.i = icmp eq ptr %this, %other
  br i1 %cmp9.i, label %_ZN6google8protobuf16RepeatedPtrFieldIN3net18SourceAddressTokenEE15UnsafeArenaSwapEPS4_.exit, label %if.end.i

if.end.i:                                         ; preds = %entry
  %rep_.i.i = getelementptr inbounds i8, ptr %this, i64 48
  %rep_2.i.i = getelementptr inbounds i8, ptr %other, i64 48
  %0 = load ptr, ptr %rep_.i.i, align 8
  %1 = load ptr, ptr %rep_2.i.i, align 8
  store ptr %1, ptr %rep_.i.i, align 8
  store ptr %0, ptr %rep_2.i.i, align 8
  %current_size_.i.i = getelementptr inbounds i8, ptr %this, i64 40
  %current_size_3.i.i = getelementptr inbounds i8, ptr %other, i64 40
  %2 = load i32, ptr %current_size_.i.i, align 8
  %3 = load i32, ptr %current_size_3.i.i, align 4
  store i32 %3, ptr %current_size_.i.i, align 8
  store i32 %2, ptr %current_size_3.i.i, align 4
  %total_size_.i.i = getelementptr inbounds i8, ptr %this, i64 44
  %total_size_4.i.i = getelementptr inbounds i8, ptr %other, i64 44
  %4 = load i32, ptr %total_size_.i.i, align 4
  %5 = load i32, ptr %total_size_4.i.i, align 4
  store i32 %5, ptr %total_size_.i.i, align 4
  store i32 %4, ptr %total_size_4.i.i, align 4
  br label %_ZN6google8protobuf16RepeatedPtrFieldIN3net18SourceAddressTokenEE15UnsafeArenaSwapEPS4_.exit

_ZN6google8protobuf16RepeatedPtrFieldIN3net18SourceAddressTokenEE15UnsafeArenaSwapEPS4_.exit: ; preds = %entry, %if.end.i
  %_has_bits_ = getelementptr inbounds i8, ptr %this, i64 24
  %_has_bits_3 = getelementptr inbounds i8, ptr %other, i64 24
  %6 = load i32, ptr %_has_bits_, align 8
  %7 = load i32, ptr %_has_bits_3, align 4
  store i32 %7, ptr %_has_bits_, align 8
  store i32 %6, ptr %_has_bits_3, align 4
  %_unknown_fields_ = getelementptr inbounds i8, ptr %this, i64 8
  %_unknown_fields_5 = getelementptr inbounds i8, ptr %other, i64 8
  %8 = load ptr, ptr %_unknown_fields_, align 8
  %9 = load ptr, ptr %_unknown_fields_5, align 8
  store ptr %9, ptr %_unknown_fields_, align 8
  store ptr %8, ptr %_unknown_fields_5, align 8
  %_cached_size_ = getelementptr inbounds i8, ptr %this, i64 28
  %_cached_size_6 = getelementptr inbounds i8, ptr %other, i64 28
  %10 = load i32, ptr %_cached_size_, align 4
  %11 = load i32, ptr %_cached_size_6, align 4
  store i32 %11, ptr %_cached_size_, align 4
  store i32 %10, ptr %_cached_size_6, align 4
  ret void
}